target datalayout = "e-m:e-p270:32:32-p271:32:32-p272:64:64-i64:64-i128:128-f80:128-n8:16:32:64-S128"
target triple = "x86_64-unknown-linux-gnu"

%"class.zmq::zmtp_engine_t" = type <{ %"class.zmq::stream_engine_base_t.base", [7 x i8], %"class.zmq::msg_t", %"class.zmq::msg_t", i64, [64 x i8], [64 x i8], i32, i8, [3 x i8], i32, [4 x i8] }>
%"class.zmq::stream_engine_base_t.base" = type <{ %"class.zmq::io_object_t", %"struct.zmq::i_engine", %"struct.zmq::options_t", ptr, i64, ptr, ptr, i64, ptr, ptr, { i64, i64 }, { i64, i64 }, ptr, i8, i8, [6 x i8], %"struct.zmq::endpoint_uri_pair_t", i8, i8, i8, i8, [4 x i8], %"class.std::__cxx11::basic_string", i32, [4 x i8], ptr, i8, i8, [6 x i8], %"class.zmq::msg_t", i8, [7 x i8], ptr, ptr, i8 }>
%"class.zmq::io_object_t" = type { %"struct.zmq::i_poll_events", ptr }
%"struct.zmq::i_poll_events" = type { ptr }
%"struct.zmq::i_engine" = type { ptr }
%"struct.zmq::options_t" = type { i32, i32, i64, i8, [256 x i8], i32, i32, i32, i32, i32, i32, i32, i32, i8, %"struct.zmq::atomic_value_t", i32, i32, i32, i32, i32, i32, i64, i32, i32, i8, i32, i8, i8, i8, i8, i8, %"class.std::__cxx11::basic_string", %"class.std::__cxx11::basic_string", %"class.std::__cxx11::basic_string", i32, i32, i32, i32, %"class.std::vector", %"class.std::set", %"class.std::set", %"class.std::set.6", i32, i32, %"class.std::__cxx11::basic_string", %"class.std::__cxx11::basic_string", %"class.std::__cxx11::basic_string", [32 x i8], [32 x i8], [32 x i8], %"class.std::__cxx11::basic_string", %"class.std::__cxx11::basic_string", i32, i32, i8, i32, i8, i32, i8, i16, i32, i32, i32, %"class.std::__cxx11::basic_string", i8, i8, i8, i32, i32, i8, i32, %"class.std::map", i32, %"class.std::__cxx11::basic_string", %"class.std::__cxx11::basic_string", %"class.std::__cxx11::basic_string", %"class.std::__cxx11::basic_string", i8, %"class.std::vector.21", i8, %"class.std::vector.21", i8, %"class.std::vector.21", i8, i32, i8, i32, i32, i32, i32, i32, i8, i32 }
%"struct.zmq::atomic_value_t" = type { %"struct.std::atomic" }
%"struct.std::atomic" = type { %"struct.std::__atomic_base" }
%"struct.std::__atomic_base" = type { i32 }
%"class.std::vector" = type { %"struct.std::_Vector_base" }
%"struct.std::_Vector_base" = type { %"struct.std::_Vector_base<zmq::tcp_address_mask_t, std::allocator<zmq::tcp_address_mask_t>>::_Vector_impl" }
%"struct.std::_Vector_base<zmq::tcp_address_mask_t, std::allocator<zmq::tcp_address_mask_t>>::_Vector_impl" = type { %"struct.std::_Vector_base<zmq::tcp_address_mask_t, std::allocator<zmq::tcp_address_mask_t>>::_Vector_impl_data" }
%"struct.std::_Vector_base<zmq::tcp_address_mask_t, std::allocator<zmq::tcp_address_mask_t>>::_Vector_impl_data" = type { ptr, ptr, ptr }
%"class.std::set" = type { %"class.std::_Rb_tree" }
%"class.std::_Rb_tree" = type { %"struct.std::_Rb_tree<unsigned int, unsigned int, std::_Identity<unsigned int>, std::less<unsigned int>>::_Rb_tree_impl" }
%"struct.std::_Rb_tree<unsigned int, unsigned int, std::_Identity<unsigned int>, std::less<unsigned int>>::_Rb_tree_impl" = type { %"struct.std::_Rb_tree_key_compare", %"struct.std::_Rb_tree_header" }
%"struct.std::_Rb_tree_key_compare" = type { %"struct.std::less" }
%"struct.std::less" = type { i8 }
%"struct.std::_Rb_tree_header" = type { %"struct.std::_Rb_tree_node_base", i64 }
%"struct.std::_Rb_tree_node_base" = type { i32, ptr, ptr, ptr }
%"class.std::set.6" = type { %"class.std::_Rb_tree.7" }
%"class.std::_Rb_tree.7" = type { %"struct.std::_Rb_tree<int, int, std::_Identity<int>, std::less<int>>::_Rb_tree_impl" }
%"struct.std::_Rb_tree<int, int, std::_Identity<int>, std::less<int>>::_Rb_tree_impl" = type { %"struct.std::_Rb_tree_key_compare.11", %"struct.std::_Rb_tree_header" }
%"struct.std::_Rb_tree_key_compare.11" = type { %"struct.std::less.12" }
%"struct.std::less.12" = type { i8 }
%"class.std::map" = type { %"class.std::_Rb_tree.14" }
%"class.std::_Rb_tree.14" = type { %"struct.std::_Rb_tree<std::__cxx11::basic_string<char>, std::pair<const std::__cxx11::basic_string<char>, std::__cxx11::basic_string<char>>, std::_Select1st<std::pair<const std::__cxx11::basic_string<char>, std::__cxx11::basic_string<char>>>, std::less<std::__cxx11::basic_string<char>>>::_Rb_tree_impl" }
%"struct.std::_Rb_tree<std::__cxx11::basic_string<char>, std::pair<const std::__cxx11::basic_string<char>, std::__cxx11::basic_string<char>>, std::_Select1st<std::pair<const std::__cxx11::basic_string<char>, std::__cxx11::basic_string<char>>>, std::less<std::__cxx11::basic_string<char>>>::_Rb_tree_impl" = type { %"struct.std::_Rb_tree_key_compare.18", %"struct.std::_Rb_tree_header" }
%"struct.std::_Rb_tree_key_compare.18" = type { %"struct.std::less.19" }
%"struct.std::less.19" = type { i8 }
%"class.std::vector.21" = type { %"struct.std::_Vector_base.22" }
%"struct.std::_Vector_base.22" = type { %"struct.std::_Vector_base<unsigned char, std::allocator<unsigned char>>::_Vector_impl" }
%"struct.std::_Vector_base<unsigned char, std::allocator<unsigned char>>::_Vector_impl" = type { %"struct.std::_Vector_base<unsigned char, std::allocator<unsigned char>>::_Vector_impl_data" }
%"struct.std::_Vector_base<unsigned char, std::allocator<unsigned char>>::_Vector_impl_data" = type { ptr, ptr, ptr }
%"struct.zmq::endpoint_uri_pair_t" = type <{ %"class.std::__cxx11::basic_string", %"class.std::__cxx11::basic_string", i32, [4 x i8] }>
%"class.std::__cxx11::basic_string" = type { %"struct.std::__cxx11::basic_string<char>::_Alloc_hider", i64, %union.anon }
%"struct.std::__cxx11::basic_string<char>::_Alloc_hider" = type { ptr }
%union.anon = type { i64, [8 x i8] }
%"class.zmq::msg_t" = type { %union.anon.26 }
%union.anon.26 = type { %struct.anon }
%struct.anon = type { ptr, [34 x i8], i8, i8, i32, %"union.zmq::msg_t::group_t" }
%"union.zmq::msg_t::group_t" = type { %struct.anon.28 }
%struct.anon.28 = type { i8, ptr }
%"class.zmq::stream_engine_base_t" = type <{ %"class.zmq::io_object_t", %"struct.zmq::i_engine", %"struct.zmq::options_t", ptr, i64, ptr, ptr, i64, ptr, ptr, { i64, i64 }, { i64, i64 }, ptr, i8, i8, [6 x i8], %"struct.zmq::endpoint_uri_pair_t", i8, i8, i8, i8, [4 x i8], %"class.std::__cxx11::basic_string", i32, [4 x i8], ptr, i8, i8, [6 x i8], %"class.zmq::msg_t", i8, [7 x i8], ptr, ptr, i8, [7 x i8] }>

@stderr = external global ptr, align 8
@.str.1 = private unnamed_addr constant [111 x i8] c"generated/home/dtcxzyw/WorkSpace/Projects/compilers/llvm-opt-benchmark/bench/libzmq/libzmq/src/zmtp_engine.cpp\00", align 1
@.str.2 = private unnamed_addr constant [30 x i8] c"Assertion failed: %s (%s:%d)\0A\00", align 1
@.str.3 = private unnamed_addr constant [38 x i8] c"_greeting_bytes_read < _greeting_size\00", align 1

; Function Attrs: mustprogress uwtable
define linkonce_odr void @_ZN3zmq20stream_engine_base_t11set_polloutEv(ptr noundef nonnull align 8 dereferenceable(1689) %this) #0 comdat align 2 {
entry:
  %this.addr = alloca ptr, align 8
  store ptr %this, ptr %this.addr, align 8
  %this1 = load ptr, ptr %this.addr, align 8
  %_handle = getelementptr inbounds %"class.zmq::stream_engine_base_t", ptr %this1, i32 0, i32 25
  %0 = load ptr, ptr %_handle, align 8
  call void @_ZN3zmq11io_object_t11set_polloutEPv(ptr noundef nonnull align 8 dereferenceable(16) %this1, ptr noundef %0)
  ret void
}

; Function Attrs: mustprogress nounwind uwtable
define { i64, i64 } @_ZN3zmq13zmtp_engine_t20select_handshake_funEbhh(i1 noundef zeroext %unversioned_, i8 noundef zeroext %revision_, i8 noundef zeroext %minor_) #4 align 2 {
entry:
  %retval = alloca { i64, i64 }, align 8
  %unversioned_.addr = alloca i8, align 1
  %revision_.addr = alloca i8, align 1
  %minor_.addr = alloca i8, align 1
  %frombool = zext i1 %unversioned_ to i8
  store i8 %frombool, ptr %unversioned_.addr, align 1
  store i8 %revision_, ptr %revision_.addr, align 1
  store i8 %minor_, ptr %minor_.addr, align 1
  %0 = load i8, ptr %unversioned_.addr, align 1
  %tobool = trunc i8 %0 to i1
  br i1 %tobool, label %if.then, label %if.end

if.then:                                          ; preds = %entry
  store { i64, i64 } { i64 ptrtoint (ptr @_ZN3zmq13zmtp_engine_t26handshake_v1_0_unversionedEv to i64), i64 0 }, ptr %retval, align 8
  br label %return

if.end:                                           ; preds = %entry
  %1 = load i8, ptr %revision_.addr, align 1
  %conv = zext i8 %1 to i32
  switch i32 %conv, label %sw.default5 [
    i32 0, label %sw.bb
    i32 1, label %sw.bb1
    i32 3, label %sw.bb2
  ]

sw.bb:                                            ; preds = %if.end
  store { i64, i64 } { i64 ptrtoint (ptr @_ZN3zmq13zmtp_engine_t14handshake_v1_0Ev to i64), i64 0 }, ptr %retval, align 8
  br label %return

sw.bb1:                                           ; preds = %if.end
  store { i64, i64 } { i64 ptrtoint (ptr @_ZN3zmq13zmtp_engine_t14handshake_v2_0Ev to i64), i64 0 }, ptr %retval, align 8
  br label %return

sw.bb2:                                           ; preds = %if.end
  %2 = load i8, ptr %minor_.addr, align 1
  %conv3 = zext i8 %2 to i32
  switch i32 %conv3, label %sw.default [
    i32 0, label %sw.bb4
  ]

sw.bb4:                                           ; preds = %sw.bb2
  store { i64, i64 } { i64 ptrtoint (ptr @_ZN3zmq13zmtp_engine_t14handshake_v3_0Ev to i64), i64 0 }, ptr %retval, align 8
  br label %return

sw.default:                                       ; preds = %sw.bb2
  store { i64, i64 } { i64 ptrtoint (ptr @_ZN3zmq13zmtp_engine_t14handshake_v3_1Ev to i64), i64 0 }, ptr %retval, align 8
  br label %return

sw.default5:                                      ; preds = %if.end
  store { i64, i64 } { i64 ptrtoint (ptr @_ZN3zmq13zmtp_engine_t14handshake_v3_1Ev to i64), i64 0 }, ptr %retval, align 8
  br label %return

return:                                           ; preds = %sw.default5, %sw.default, %sw.bb4, %sw.bb1, %sw.bb, %if.then
  %3 = load { i64, i64 }, ptr %retval, align 8
  ret { i64, i64 } %3
}

; Function Attrs: mustprogress uwtable
define noundef i32 @_ZN3zmq13zmtp_engine_t16receive_greetingEv(ptr noundef nonnull align 8 dereferenceable(1976) %this) #0 align 2 {
entry:
  %retval = alloca i32, align 4
  %this.addr = alloca ptr, align 8
  %unversioned = alloca i8, align 1
  %n = alloca i32, align 4
  store ptr %this, ptr %this.addr, align 8
  %this1 = load ptr, ptr %this.addr, align 8
  store i8 0, ptr %unversioned, align 1
  br label %while.cond

while.cond:                                       ; preds = %if.end26, %if.then20, %entry
  %_greeting_bytes_read = getelementptr inbounds %"class.zmq::zmtp_engine_t", ptr %this1, i32 0, i32 7
  %0 = load i32, ptr %_greeting_bytes_read, align 8
  %conv = zext i32 %0 to i64
  %_greeting_size = getelementptr inbounds %"class.zmq::zmtp_engine_t", ptr %this1, i32 0, i32 4
  %1 = load i64, ptr %_greeting_size, align 8
  %cmp = icmp ult i64 %conv, %1
  br i1 %cmp, label %while.body, label %while.end

while.body:                                       ; preds = %while.cond
  %_greeting_recv = getelementptr inbounds %"class.zmq::zmtp_engine_t", ptr %this1, i32 0, i32 5
  %arraydecay = getelementptr inbounds [64 x i8], ptr %_greeting_recv, i64 0, i64 0
  %_greeting_bytes_read2 = getelementptr inbounds %"class.zmq::zmtp_engine_t", ptr %this1, i32 0, i32 7
  %2 = load i32, ptr %_greeting_bytes_read2, align 8
  %idx.ext = zext i32 %2 to i64
  %add.ptr = getelementptr inbounds i8, ptr %arraydecay, i64 %idx.ext
  %_greeting_size3 = getelementptr inbounds %"class.zmq::zmtp_engine_t", ptr %this1, i32 0, i32 4
  %3 = load i64, ptr %_greeting_size3, align 8
  %_greeting_bytes_read4 = getelementptr inbounds %"class.zmq::zmtp_engine_t", ptr %this1, i32 0, i32 7
  %4 = load i32, ptr %_greeting_bytes_read4, align 8
  %conv5 = zext i32 %4 to i64
  %sub = sub i64 %3, %conv5
  %call = call noundef i32 @_ZN3zmq20stream_engine_base_t4readEPvm(ptr noundef nonnull align 8 dereferenceable(1689) %this1, ptr noundef %add.ptr, i64 noundef %sub)
  store i32 %call, ptr %n, align 4
  %5 = load i32, ptr %n, align 4
  %cmp6 = icmp eq i32 %5, -1
  br i1 %cmp6, label %if.then, label %if.end10

if.then:                                          ; preds = %while.body
  %call7 = call ptr @__errno_location() #13
  %6 = load i32, ptr %call7, align 4
  %cmp8 = icmp ne i32 %6, 11
  br i1 %cmp8, label %if.then9, label %if.end

if.then9:                                         ; preds = %if.then
  call void @_ZN3zmq20stream_engine_base_t5errorENS_8i_engine14error_reason_tE(ptr noundef nonnull align 8 dereferenceable(1689) %this1, i32 noundef 1)
  br label %if.end

if.end:                                           ; preds = %if.then9, %if.then
  store i32 -1, ptr %retval, align 4
  br label %return

if.end10:                                         ; preds = %while.body
  %7 = load i32, ptr %n, align 4
  %_greeting_bytes_read11 = getelementptr inbounds %"class.zmq::zmtp_engine_t", ptr %this1, i32 0, i32 7
  %8 = load i32, ptr %_greeting_bytes_read11, align 8
  %add = add i32 %8, %7
  store i32 %add, ptr %_greeting_bytes_read11, align 8
  %_greeting_recv12 = getelementptr inbounds %"class.zmq::zmtp_engine_t", ptr %this1, i32 0, i32 5
  %arrayidx = getelementptr inbounds [64 x i8], ptr %_greeting_recv12, i64 0, i64 0
  %9 = load i8, ptr %arrayidx, align 8
  %conv13 = zext i8 %9 to i32
  %cmp14 = icmp ne i32 %conv13, 255
  br i1 %cmp14, label %if.then15, label %if.end16

if.then15:                                        ; preds = %if.end10
  store i8 1, ptr %unversioned, align 1
  br label %while.end

if.end16:                                         ; preds = %if.end10
  %_greeting_bytes_read17 = getelementptr inbounds %"class.zmq::zmtp_engine_t", ptr %this1, i32 0, i32 7
  %10 = load i32, ptr %_greeting_bytes_read17, align 8
  %conv18 = zext i32 %10 to i64
  %cmp19 = icmp ult i64 %conv18, 10
  br i1 %cmp19, label %if.then20, label %if.end21

if.then20:                                        ; preds = %if.end16
  br label %while.cond, !llvm.loop !5

if.end21:                                         ; preds = %if.end16
  %_greeting_recv22 = getelementptr inbounds %"class.zmq::zmtp_engine_t", ptr %this1, i32 0, i32 5
  %arrayidx23 = getelementptr inbounds [64 x i8], ptr %_greeting_recv22, i64 0, i64 9
  %11 = load i8, ptr %arrayidx23, align 1
  %conv24 = zext i8 %11 to i32
  %and = and i32 %conv24, 1
  %tobool = icmp ne i32 %and, 0
  br i1 %tobool, label %if.end26, label %if.then25

if.then25:                                        ; preds = %if.end21
  store i8 1, ptr %unversioned, align 1
  br label %while.end

if.end26:                                         ; preds = %if.end21
  call void @_ZN3zmq13zmtp_engine_t26receive_greeting_versionedEv(ptr noundef nonnull align 8 dereferenceable(1976) %this1)
  br label %while.cond, !llvm.loop !5

while.end:                                        ; preds = %if.then25, %if.then15, %while.cond
  %12 = load i8, ptr %unversioned, align 1
  %tobool27 = trunc i8 %12 to i1
  %cond = select i1 %tobool27, i32 1, i32 0
  store i32 %cond, ptr %retval, align 4
  br label %return

return:                                           ; preds = %while.end, %if.end
  %13 = load i32, ptr %retval, align 4
  ret i32 %13
}

; Function Attrs: mustprogress uwtable
define noundef zeroext i1 @_ZN3zmq13zmtp_engine_t9handshakeEv(ptr noundef nonnull align 8 dereferenceable(1976) %this) unnamed_addr #0 align 2 {
entry:
  %retval = alloca i1, align 1
  %this.addr = alloca ptr, align 8
  %rc = alloca i32, align 4
  %unversioned = alloca i8, align 1
  store ptr %this, ptr %this.addr, align 8
  %this1 = load ptr, ptr %this.addr, align 8
  br label %do.body

do.body:                                          ; preds = %entry
  %_greeting_bytes_read = getelementptr inbounds %"class.zmq::zmtp_engine_t", ptr %this1, i32 0, i32 7
  %0 = load i32, ptr %_greeting_bytes_read, align 8
  %conv = zext i32 %0 to i64
  %_greeting_size = getelementptr inbounds %"class.zmq::zmtp_engine_t", ptr %this1, i32 0, i32 4
  %1 = load i64, ptr %_greeting_size, align 8
  %cmp = icmp ult i64 %conv, %1
  %lnot = xor i1 %cmp, true
  br i1 %lnot, label %if.then, label %if.end

if.then:                                          ; preds = %do.body
  %2 = load ptr, ptr @stderr, align 8
  %call = call i32 (ptr, ptr, ...) @fprintf(ptr noundef %2, ptr noundef @.str.2, ptr noundef @.str.3, ptr noundef @.str.1, i32 noundef 98)
  %3 = load ptr, ptr @stderr, align 8
  %call3 = call i32 @fflush(ptr noundef %3)
  call void @_ZN3zmq9zmq_abortEPKc(ptr noundef @.str.3)
  br label %if.end

if.end:                                           ; preds = %if.then, %do.body
  br label %do.end

do.end:                                           ; preds = %if.end
  %call4 = call noundef i32 @_ZN3zmq13zmtp_engine_t16receive_greetingEv(ptr noundef nonnull align 8 dereferenceable(1976) %this1)
  store i32 %call4, ptr %rc, align 4
  %4 = load i32, ptr %rc, align 4
  %cmp5 = icmp eq i32 %4, -1
  br i1 %cmp5, label %if.then6, label %if.end7

if.then6:                                         ; preds = %do.end
  store i1 false, ptr %retval, align 1
  br label %return

if.end7:                                          ; preds = %do.end
  %5 = load i32, ptr %rc, align 4
  %cmp8 = icmp ne i32 %5, 0
  %frombool = zext i1 %cmp8 to i8
  store i8 %frombool, ptr %unversioned, align 1
  %6 = load i8, ptr %unversioned, align 1
  %tobool = trunc i8 %6 to i1
  %_greeting_recv = getelementptr inbounds %"class.zmq::zmtp_engine_t", ptr %this1, i32 0, i32 5
  %arrayidx = getelementptr inbounds [64 x i8], ptr %_greeting_recv, i64 0, i64 10
  %7 = load i8, ptr %arrayidx, align 2
  %_greeting_recv9 = getelementptr inbounds %"class.zmq::zmtp_engine_t", ptr %this1, i32 0, i32 5
  %arrayidx10 = getelementptr inbounds [64 x i8], ptr %_greeting_recv9, i64 0, i64 11
  %8 = load i8, ptr %arrayidx10, align 1
  %call11 = call { i64, i64 } @_ZN3zmq13zmtp_engine_t20select_handshake_funEbhh(i1 noundef zeroext %tobool, i8 noundef zeroext %7, i8 noundef zeroext %8)
  %memptr.adj = extractvalue { i64, i64 } %call11, 1
  %9 = getelementptr inbounds i8, ptr %this1, i64 %memptr.adj
  %memptr.ptr = extractvalue { i64, i64 } %call11, 0
  %10 = and i64 %memptr.ptr, 1
  %memptr.isvirtual = icmp ne i64 %10, 0
  br i1 %memptr.isvirtual, label %memptr.virtual, label %memptr.nonvirtual

memptr.virtual:                                   ; preds = %if.end7
  %vtable = load ptr, ptr %9, align 8
  %11 = sub i64 %memptr.ptr, 1
  %12 = getelementptr i8, ptr %vtable, i64 %11, !nosanitize !4
  %memptr.virtualfn = load ptr, ptr %12, align 8, !nosanitize !4
  br label %memptr.end

memptr.nonvirtual:                                ; preds = %if.end7
  %memptr.nonvirtualfn = inttoptr i64 %memptr.ptr to ptr
  br label %memptr.end

memptr.end:                                       ; preds = %memptr.nonvirtual, %memptr.virtual
  %13 = phi ptr [ %memptr.virtualfn, %memptr.virtual ], [ %memptr.nonvirtualfn, %memptr.nonvirtual ]
  %call12 = call noundef zeroext i1 %13(ptr noundef nonnull align 8 dereferenceable(1976) %9)
  br i1 %call12, label %if.end14, label %if.then13

if.then13:                                        ; preds = %memptr.end
  store i1 false, ptr %retval, align 1
  br label %return

if.end14:                                         ; preds = %memptr.end
  %_outsize = getelementptr inbounds %"class.zmq::stream_engine_base_t", ptr %this1, i32 0, i32 7
  %14 = load i64, ptr %_outsize, align 8
  %cmp15 = icmp eq i64 %14, 0
  br i1 %cmp15, label %if.then16, label %if.end17

if.then16:                                        ; preds = %if.end14
  call void @_ZN3zmq20stream_engine_base_t11set_polloutEv(ptr noundef nonnull align 8 dereferenceable(1689) %this1)
  br label %if.end17

if.end17:                                         ; preds = %if.then16, %if.end14
  store i1 true, ptr %retval, align 1
  br label %return

return:                                           ; preds = %if.end17, %if.then13, %if.then6
  %15 = load i1, ptr %retval, align 1
  ret i1 %15
}