; Function Attrs: mustprogress uwtable
define noundef zeroext i1 @_ZN3zmq13zmtp_engine_t9handshakeEv(ptr noundef nonnull align 8 dereferenceable(1976) %this) unnamed_addr #0 align 2 {
entry:
  %_greeting_bytes_read = getelementptr inbounds i8, ptr %this, i64 1960
  %0 = load i32, ptr %_greeting_bytes_read, align 8
  %conv = zext i32 %0 to i64
  %_greeting_size = getelementptr inbounds i8, ptr %this, i64 1824
  %1 = load i64, ptr %_greeting_size, align 8
  %cmp.not = icmp ugt i64 %1, %conv
  br i1 %cmp.not, label %do.end, label %if.then

if.then:                                          ; preds = %entry
  %2 = load ptr, ptr @stderr, align 8
  %call = tail call i32 (ptr, ptr, ...) @fprintf(ptr noundef %2, ptr noundef nonnull @.str.2, ptr noundef nonnull @.str.3, ptr noundef nonnull @.str.1, i32 noundef 98) #18
  %3 = load ptr, ptr @stderr, align 8
  %call3 = tail call i32 @fflush(ptr noundef %3)
  tail call void @_ZN3zmq9zmq_abortEPKc(ptr noundef nonnull @.str.3)
  %.pre = load i32, ptr %_greeting_bytes_read, align 8
  %.pre9 = load i64, ptr %_greeting_size, align 8
  %.pre10 = zext i32 %.pre to i64
  br label %do.end

do.end:                                           ; preds = %entry, %if.then
  %conv3.i.pre-phi = phi i64 [ %conv, %entry ], [ %.pre10, %if.then ]
  %4 = phi i64 [ %1, %entry ], [ %.pre9, %if.then ]
  %cmp4.i = icmp ugt i64 %4, %conv3.i.pre-phi
  br i1 %cmp4.i, label %while.body.lr.ph.i, label %if.end.i

while.body.lr.ph.i:                               ; preds = %do.end
  %_greeting_recv.i = getelementptr inbounds i8, ptr %this, i64 1832
  %arrayidx23.i = getelementptr inbounds i8, ptr %this, i64 1841
  br label %while.body.i

while.body.i:                                     ; preds = %while.cond.backedge.i, %while.body.lr.ph.i
  %5 = phi i64 [ %4, %while.body.lr.ph.i ], [ %12, %while.cond.backedge.i ]
  %conv5.i = phi i64 [ %conv3.i.pre-phi, %while.body.lr.ph.i ], [ %conv.i, %while.cond.backedge.i ]
  %add.ptr.i = getelementptr inbounds i8, ptr %_greeting_recv.i, i64 %conv5.i
  %sub.i = sub i64 %5, %conv5.i
  %call.i = tail call noundef i32 @_ZN3zmq20stream_engine_base_t4readEPvm(ptr noundef nonnull align 8 dereferenceable(1689) %this, ptr noundef nonnull %add.ptr.i, i64 noundef %sub.i)
  %cmp6.i = icmp eq i32 %call.i, -1
  br i1 %cmp6.i, label %if.then.i, label %if.end10.i

if.then.i:                                        ; preds = %while.body.i
  %call7.i = tail call ptr @__errno_location() #16
  %6 = load i32, ptr %call7.i, align 4
  %cmp8.not.i = icmp eq i32 %6, 11
  br i1 %cmp8.not.i, label %return, label %if.then9.i

if.then9.i:                                       ; preds = %if.then.i
  tail call void @_ZN3zmq20stream_engine_base_t5errorENS_8i_engine14error_reason_tE(ptr noundef nonnull align 8 dereferenceable(1689) %this, i32 noundef 1)
  br label %return

if.end10.i:                                       ; preds = %while.body.i
  %7 = load i32, ptr %_greeting_bytes_read, align 8
  %add.i = add i32 %7, %call.i
  store i32 %add.i, ptr %_greeting_bytes_read, align 8
  %8 = load i8, ptr %_greeting_recv.i, align 8
  %cmp14.not.i = icmp eq i8 %8, -1
  br i1 %cmp14.not.i, label %if.end16.i, label %memptr.end

if.end16.i:                                       ; preds = %if.end10.i
  %cmp19.i = icmp ult i32 %add.i, 10
  br i1 %cmp19.i, label %while.cond.backedge.i, label %if.end21.i

if.end21.i:                                       ; preds = %if.end16.i
  %9 = load i8, ptr %arrayidx23.i, align 1
  %10 = and i8 %9, 1
  %tobool.not.i = icmp eq i8 %10, 0
  br i1 %tobool.not.i, label %memptr.end, label %if.end26.i

if.end26.i:                                       ; preds = %if.end21.i
  tail call void @_ZN3zmq13zmtp_engine_t26receive_greeting_versionedEv(ptr noundef nonnull align 8 dereferenceable(1976) %this)
  %.pre.i = load i32, ptr %_greeting_bytes_read, align 8
  br label %while.cond.backedge.i

while.cond.backedge.i:                            ; preds = %if.end26.i, %if.end16.i
  %11 = phi i32 [ %.pre.i, %if.end26.i ], [ %add.i, %if.end16.i ]
  %conv.i = zext i32 %11 to i64
  %12 = load i64, ptr %_greeting_size, align 8
  %cmp.i = icmp ugt i64 %12, %conv.i
  br i1 %cmp.i, label %while.body.i, label %if.end.i, !llvm.loop !4

if.end.i:                                         ; preds = %while.cond.backedge.i, %do.end
  %arrayidx = getelementptr inbounds i8, ptr %this, i64 1842
  %13 = load i8, ptr %arrayidx, align 2
  switch i8 %13, label %sw.default5.i [
    i8 0, label %memptr.end
    i8 1, label %sw.bb1.i
    i8 3, label %sw.bb2.i
  ]

sw.bb1.i:                                         ; preds = %if.end.i
  br label %memptr.end

sw.bb2.i:                                         ; preds = %if.end.i
  %arrayidx10 = getelementptr inbounds i8, ptr %this, i64 1843
  %14 = load i8, ptr %arrayidx10, align 1
  %cond.i = icmp eq i8 %14, 0
  %15 = select i1 %cond.i, ptr @_ZN3zmq13zmtp_engine_t14handshake_v3_0Ev, ptr @_ZN3zmq13zmtp_engine_t14handshake_v3_1Ev
  br label %memptr.end

sw.default5.i:                                    ; preds = %if.end.i
  br label %memptr.end

memptr.end:                                       ; preds = %if.end21.i, %if.end10.i, %if.end.i, %sw.bb1.i, %sw.bb2.i, %sw.default5.i
  %retval.sroa.0.0.i = phi ptr [ @_ZN3zmq13zmtp_engine_t14handshake_v3_1Ev, %sw.default5.i ], [ @_ZN3zmq13zmtp_engine_t14handshake_v2_0Ev, %sw.bb1.i ], [ @_ZN3zmq13zmtp_engine_t14handshake_v1_0Ev, %if.end.i ], [ %15, %sw.bb2.i ], [ @_ZN3zmq13zmtp_engine_t26handshake_v1_0_unversionedEv, %if.end10.i ], [ @_ZN3zmq13zmtp_engine_t26handshake_v1_0_unversionedEv, %if.end21.i ]
  %call12 = tail call noundef zeroext i1 %retval.sroa.0.0.i(ptr noundef nonnull align 8 dereferenceable(1976) %this)
  br i1 %call12, label %if.end14, label %return

if.end14:                                         ; preds = %memptr.end
  %_outsize = getelementptr inbounds i8, ptr %this, i64 1392
  %16 = load i64, ptr %_outsize, align 8
  %cmp15 = icmp eq i64 %16, 0
  br i1 %cmp15, label %if.then16, label %return

if.then16:                                        ; preds = %if.end14
  %_handle.i = getelementptr inbounds i8, ptr %this, i64 1584
  %17 = load ptr, ptr %_handle.i, align 8
  tail call void @_ZN3zmq11io_object_t11set_polloutEPv(ptr noundef nonnull align 8 dereferenceable(16) %this, ptr noundef %17)
  br label %return

return:                                           ; preds = %if.then9.i, %if.then.i, %if.end14, %if.then16, %memptr.end
  %retval.0 = phi i1 [ false, %memptr.end ], [ true, %if.then16 ], [ true, %if.end14 ], [ false, %if.then.i ], [ false, %if.then9.i ]
  ret i1 %retval.0
}